; ModuleID = '9/845.c'
source_filename = "9/845.c"
target datalayout = "e-m:e-p270:32:32-p271:32:32-p272:64:64-i64:64-f80:128-n8:16:32:64-S128"
target triple = "x86_64-pc-linux-gnu"

@.str = private unnamed_addr constant [3 x i8] c"%d\00", align 1
@.str.1 = private unnamed_addr constant [5 x i8] c"%s%d\00", align 1
@.str.2 = private unnamed_addr constant [4 x i8] c"%s\0A\00", align 1

; Function Attrs: noinline nounwind uwtable
define dso_local i32 @main() #0 {
  %1 = alloca i32, align 4
  %2 = alloca [100 x i32], align 16
  %3 = alloca [100 x i32], align 16
  %4 = alloca [100 x i32], align 16
  %5 = alloca i32, align 4
  %6 = alloca i32, align 4
  %7 = alloca i32, align 4
  %8 = alloca i32, align 4
  %9 = alloca i32, align 4
  %10 = alloca i32, align 4
  %11 = alloca [100 x [10 x i8]], align 16
  %12 = alloca [100 x [10 x i8]], align 16
  %13 = alloca [100 x [10 x i8]], align 16
  %14 = alloca [10 x i8], align 1
  store i32 0, i32* %1, align 4
  store i32 0, i32* %8, align 4
  store i32 0, i32* %9, align 4
  %15 = call i32 (i8*, ...) @__isoc99_scanf(i8* getelementptr inbounds ([3 x i8], [3 x i8]* @.str, i64 0, i64 0), i32* %5)
  store i32 0, i32* %6, align 4
  br label %16

16:                                               ; preds = %29, %0
  %17 = load i32, i32* %6, align 4
  %18 = load i32, i32* %5, align 4
  %19 = icmp slt i32 %17, %18
  br i1 %19, label %20, label %32

20:                                               ; preds = %16
  %21 = load i32, i32* %6, align 4
  %22 = sext i32 %21 to i64
  %23 = getelementptr inbounds [100 x [10 x i8]], [100 x [10 x i8]]* %11, i64 0, i64 %22
  %24 = getelementptr inbounds [10 x i8], [10 x i8]* %23, i64 0, i64 0
  %25 = load i32, i32* %6, align 4
  %26 = sext i32 %25 to i64
  %27 = getelementptr inbounds [100 x i32], [100 x i32]* %2, i64 0, i64 %26
  %28 = call i32 (i8*, ...) @__isoc99_scanf(i8* getelementptr inbounds ([5 x i8], [5 x i8]* @.str.1, i64 0, i64 0), i8* %24, i32* %27)
  br label %29

29:                                               ; preds = %20
  %30 = load i32, i32* %6, align 4
  %31 = add nsw i32 %30, 1
  store i32 %31, i32* %6, align 4
  br label %16

32:                                               ; preds = %16
  store i32 0, i32* %6, align 4
  br label %33

33:                                               ; preds = %82, %32
  %34 = load i32, i32* %6, align 4
  %35 = load i32, i32* %5, align 4
  %36 = icmp slt i32 %34, %35
  br i1 %36, label %37, label %85

37:                                               ; preds = %33
  %38 = load i32, i32* %6, align 4
  %39 = sext i32 %38 to i64
  %40 = getelementptr inbounds [100 x i32], [100 x i32]* %2, i64 0, i64 %39
  %41 = load i32, i32* %40, align 4
  %42 = icmp sge i32 %41, 60
  br i1 %42, label %43, label %62

43:                                               ; preds = %37
  %44 = load i32, i32* %6, align 4
  %45 = sext i32 %44 to i64
  %46 = getelementptr inbounds [100 x i32], [100 x i32]* %2, i64 0, i64 %45
  %47 = load i32, i32* %46, align 4
  %48 = load i32, i32* %8, align 4
  %49 = sext i32 %48 to i64
  %50 = getelementptr inbounds [100 x i32], [100 x i32]* %3, i64 0, i64 %49
  store i32 %47, i32* %50, align 4
  %51 = load i32, i32* %8, align 4
  %52 = sext i32 %51 to i64
  %53 = getelementptr inbounds [100 x [10 x i8]], [100 x [10 x i8]]* %12, i64 0, i64 %52
  %54 = getelementptr inbounds [10 x i8], [10 x i8]* %53, i64 0, i64 0
  %55 = load i32, i32* %6, align 4
  %56 = sext i32 %55 to i64
  %57 = getelementptr inbounds [100 x [10 x i8]], [100 x [10 x i8]]* %11, i64 0, i64 %56
  %58 = getelementptr inbounds [10 x i8], [10 x i8]* %57, i64 0, i64 0
  %59 = call i8* @strcpy(i8* %54, i8* %58) #3
  %60 = load i32, i32* %8, align 4
  %61 = add nsw i32 %60, 1
  store i32 %61, i32* %8, align 4
  br label %81

62:                                               ; preds = %37
  %63 = load i32, i32* %6, align 4
  %64 = sext i32 %63 to i64
  %65 = getelementptr inbounds [100 x i32], [100 x i32]* %2, i64 0, i64 %64
  %66 = load i32, i32* %65, align 4
  %67 = load i32, i32* %9, align 4
  %68 = sext i32 %67 to i64
  %69 = getelementptr inbounds [100 x i32], [100 x i32]* %4, i64 0, i64 %68
  store i32 %66, i32* %69, align 4
  %70 = load i32, i32* %9, align 4
  %71 = sext i32 %70 to i64
  %72 = getelementptr inbounds [100 x [10 x i8]], [100 x [10 x i8]]* %13, i64 0, i64 %71
  %73 = getelementptr inbounds [10 x i8], [10 x i8]* %72, i64 0, i64 0
  %74 = load i32, i32* %6, align 4
  %75 = sext i32 %74 to i64
  %76 = getelementptr inbounds [100 x [10 x i8]], [100 x [10 x i8]]* %11, i64 0, i64 %75
  %77 = getelementptr inbounds [10 x i8], [10 x i8]* %76, i64 0, i64 0
  %78 = call i8* @strcpy(i8* %73, i8* %77) #3
  %79 = load i32, i32* %9, align 4
  %80 = add nsw i32 %79, 1
  store i32 %80, i32* %9, align 4
  br label %81

81:                                               ; preds = %62, %43
  br label %82

82:                                               ; preds = %81
  %83 = load i32, i32* %6, align 4
  %84 = add nsw i32 %83, 1
  store i32 %84, i32* %6, align 4
  br label %33

85:                                               ; preds = %33
  store i32 0, i32* %7, align 4
  br label %86

86:                                               ; preds = %154, %85
  %87 = load i32, i32* %7, align 4
  %88 = load i32, i32* %8, align 4
  %89 = sub nsw i32 %88, 1
  %90 = icmp slt i32 %87, %89
  br i1 %90, label %91, label %157

91:                                               ; preds = %86
  store i32 0, i32* %6, align 4
  br label %92

92:                                               ; preds = %150, %91
  %93 = load i32, i32* %6, align 4
  %94 = load i32, i32* %8, align 4
  %95 = sub nsw i32 %94, 1
  %96 = icmp slt i32 %93, %95
  br i1 %96, label %97, label %153

97:                                               ; preds = %92
  %98 = load i32, i32* %6, align 4
  %99 = sext i32 %98 to i64
  %100 = getelementptr inbounds [100 x i32], [100 x i32]* %3, i64 0, i64 %99
  %101 = load i32, i32* %100, align 4
  %102 = load i32, i32* %6, align 4
  %103 = add nsw i32 %102, 1
  %104 = sext i32 %103 to i64
  %105 = getelementptr inbounds [100 x i32], [100 x i32]* %3, i64 0, i64 %104
  %106 = load i32, i32* %105, align 4
  %107 = icmp slt i32 %101, %106
  br i1 %107, label %108, label %149

108:                                              ; preds = %97
  %109 = load i32, i32* %6, align 4
  %110 = sext i32 %109 to i64
  %111 = getelementptr inbounds [100 x i32], [100 x i32]* %3, i64 0, i64 %110
  %112 = load i32, i32* %111, align 4
  store i32 %112, i32* %10, align 4
  %113 = load i32, i32* %6, align 4
  %114 = add nsw i32 %113, 1
  %115 = sext i32 %114 to i64
  %116 = getelementptr inbounds [100 x i32], [100 x i32]* %3, i64 0, i64 %115
  %117 = load i32, i32* %116, align 4
  %118 = load i32, i32* %6, align 4
  %119 = sext i32 %118 to i64
  %120 = getelementptr inbounds [100 x i32], [100 x i32]* %3, i64 0, i64 %119
  store i32 %117, i32* %120, align 4
  %121 = load i32, i32* %10, align 4
  %122 = load i32, i32* %6, align 4
  %123 = add nsw i32 %122, 1
  %124 = sext i32 %123 to i64
  %125 = getelementptr inbounds [100 x i32], [100 x i32]* %3, i64 0, i64 %124
  store i32 %121, i32* %125, align 4
  %126 = getelementptr inbounds [10 x i8], [10 x i8]* %14, i64 0, i64 0
  %127 = load i32, i32* %6, align 4
  %128 = sext i32 %127 to i64
  %129 = getelementptr inbounds [100 x [10 x i8]], [100 x [10 x i8]]* %12, i64 0, i64 %128
  %130 = getelementptr inbounds [10 x i8], [10 x i8]* %129, i64 0, i64 0
  %131 = call i8* @strcpy(i8* %126, i8* %130) #3
  %132 = load i32, i32* %6, align 4
  %133 = sext i32 %132 to i64
  %134 = getelementptr inbounds [100 x [10 x i8]], [100 x [10 x i8]]* %12, i64 0, i64 %133
  %135 = getelementptr inbounds [10 x i8], [10 x i8]* %134, i64 0, i64 0
  %136 = load i32, i32* %6, align 4
  %137 = add nsw i32 %136, 1
  %138 = sext i32 %137 to i64
  %139 = getelementptr inbounds [100 x [10 x i8]], [100 x [10 x i8]]* %12, i64 0, i64 %138
  %140 = getelementptr inbounds [10 x i8], [10 x i8]* %139, i64 0, i64 0
  %141 = call i8* @strcpy(i8* %135, i8* %140) #3
  %142 = load i32, i32* %6, align 4
  %143 = add nsw i32 %142, 1
  %144 = sext i32 %143 to i64
  %145 = getelementptr inbounds [100 x [10 x i8]], [100 x [10 x i8]]* %12, i64 0, i64 %144
  %146 = getelementptr inbounds [10 x i8], [10 x i8]* %145, i64 0, i64 0
  %147 = getelementptr inbounds [10 x i8], [10 x i8]* %14, i64 0, i64 0
  %148 = call i8* @strcpy(i8* %146, i8* %147) #3
  br label %149

149:                                              ; preds = %108, %97
  br label %150

150:                                              ; preds = %149
  %151 = load i32, i32* %6, align 4
  %152 = add nsw i32 %151, 1
  store i32 %152, i32* %6, align 4
  br label %92

153:                                              ; preds = %92
  br label %154

154:                                              ; preds = %153
  %155 = load i32, i32* %7, align 4
  %156 = add nsw i32 %155, 1
  store i32 %156, i32* %7, align 4
  br label %86

157:                                              ; preds = %86
  store i32 0, i32* %6, align 4
  br label %158

158:                                              ; preds = %168, %157
  %159 = load i32, i32* %6, align 4
  %160 = load i32, i32* %8, align 4
  %161 = icmp slt i32 %159, %160
  br i1 %161, label %162, label %171

162:                                              ; preds = %158
  %163 = load i32, i32* %6, align 4
  %164 = sext i32 %163 to i64
  %165 = getelementptr inbounds [100 x [10 x i8]], [100 x [10 x i8]]* %12, i64 0, i64 %164
  %166 = getelementptr inbounds [10 x i8], [10 x i8]* %165, i64 0, i64 0
  %167 = call i32 (i8*, ...) @printf(i8* getelementptr inbounds ([4 x i8], [4 x i8]* @.str.2, i64 0, i64 0), i8* %166)
  br label %168

168:                                              ; preds = %162
  %169 = load i32, i32* %6, align 4
  %170 = add nsw i32 %169, 1
  store i32 %170, i32* %6, align 4
  br label %158

171:                                              ; preds = %158
  store i32 0, i32* %6, align 4
  br label %172

172:                                              ; preds = %182, %171
  %173 = load i32, i32* %6, align 4
  %174 = load i32, i32* %9, align 4
  %175 = icmp slt i32 %173, %174
  br i1 %175, label %176, label %185

176:                                              ; preds = %172
  %177 = load i32, i32* %6, align 4
  %178 = sext i32 %177 to i64
  %179 = getelementptr inbounds [100 x [10 x i8]], [100 x [10 x i8]]* %13, i64 0, i64 %178
  %180 = getelementptr inbounds [10 x i8], [10 x i8]* %179, i64 0, i64 0
  %181 = call i32 (i8*, ...) @printf(i8* getelementptr inbounds ([4 x i8], [4 x i8]* @.str.2, i64 0, i64 0), i8* %180)
  br label %182

182:                                              ; preds = %176
  %183 = load i32, i32* %6, align 4
  %184 = add nsw i32 %183, 1
  store i32 %184, i32* %6, align 4
  br label %172

185:                                              ; preds = %172
  ret i32 0
}

declare dso_local i32 @__isoc99_scanf(i8*, ...) #1

; Function Attrs: nounwind
declare dso_local i8* @strcpy(i8*, i8*) #2

declare dso_local i32 @printf(i8*, ...) #1


!llvm.module.flags = !{!0}
!llvm.ident = !{!1}

!0 = !{i32 1, !"wchar_size", i32 4}
!1 = !{!"clang version 10.0.0-4ubuntu1 "}
